
main.elf:     file format elf32-littlearm


Disassembly of section .text:

00000000 <__text_start>:
   0:	10000600 	.word	0x10000600
   4:	000003dd 	.word	0x000003dd
	...

00000020 <sdin_set>:
  20:	4b04      	ldr	r3, [pc, #16]	; (34 <sdin_set+0x14>)
  22:	2800      	cmp	r0, #0
  24:	d003      	beq.n	2e <sdin_set+0xe>
  26:	2201      	movs	r2, #1
  28:	4252      	negs	r2, r2
  2a:	601a      	str	r2, [r3, #0]
  2c:	e000      	b.n	30 <sdin_set+0x10>
  2e:	6018      	str	r0, [r3, #0]
  30:	4770      	bx	lr
  32:	46c0      	nop			; (mov r8, r8)
  34:	50010020 	.word	0x50010020

00000038 <wait>:
  38:	b510      	push	{r4, lr}
  3a:	1c04      	adds	r4, r0, #0
  3c:	f000 f958 	bl	2f0 <now>
  40:	1900      	adds	r0, r0, r4
  42:	f000 f95b 	bl	2fc <await>
  46:	bd10      	pop	{r4, pc}

00000048 <lcd5510_send_byte>:
  48:	b538      	push	{r3, r4, r5, lr}
  4a:	1c05      	adds	r5, r0, #0
  4c:	2408      	movs	r4, #8
  4e:	237f      	movs	r3, #127	; 0x7f
  50:	1c28      	adds	r0, r5, #0
  52:	4398      	bics	r0, r3
  54:	f7ff ffe4 	bl	20 <sdin_set>
  58:	4b05      	ldr	r3, [pc, #20]	; (70 <lcd5510_send_byte+0x28>)
  5a:	2201      	movs	r2, #1
  5c:	4252      	negs	r2, r2
  5e:	601a      	str	r2, [r3, #0]
  60:	006d      	lsls	r5, r5, #1
  62:	2200      	movs	r2, #0
  64:	3c01      	subs	r4, #1
  66:	b2ed      	uxtb	r5, r5
  68:	601a      	str	r2, [r3, #0]
  6a:	4294      	cmp	r4, r2
  6c:	d1ef      	bne.n	4e <lcd5510_send_byte+0x6>
  6e:	bd38      	pop	{r3, r4, r5, pc}
  70:	50010040 	.word	0x50010040

00000074 <lcd5510_command>:
  74:	b510      	push	{r4, lr}
  76:	4a05      	ldr	r2, [pc, #20]	; (8c <lcd5510_command+0x18>)
  78:	4c05      	ldr	r4, [pc, #20]	; (90 <lcd5510_command+0x1c>)
  7a:	2300      	movs	r3, #0
  7c:	6013      	str	r3, [r2, #0]
  7e:	6023      	str	r3, [r4, #0]
  80:	f7ff ffe2 	bl	48 <lcd5510_send_byte>
  84:	2301      	movs	r3, #1
  86:	425b      	negs	r3, r3
  88:	6023      	str	r3, [r4, #0]
  8a:	bd10      	pop	{r4, pc}
  8c:	50010010 	.word	0x50010010
  90:	50010004 	.word	0x50010004

00000094 <lcd5510_data>:
  94:	b538      	push	{r3, r4, r5, lr}
  96:	4b05      	ldr	r3, [pc, #20]	; (ac <lcd5510_data+0x18>)
  98:	2501      	movs	r5, #1
  9a:	426d      	negs	r5, r5
  9c:	4c04      	ldr	r4, [pc, #16]	; (b0 <lcd5510_data+0x1c>)
  9e:	601d      	str	r5, [r3, #0]
  a0:	2300      	movs	r3, #0
  a2:	6023      	str	r3, [r4, #0]
  a4:	f7ff ffd0 	bl	48 <lcd5510_send_byte>
  a8:	6025      	str	r5, [r4, #0]
  aa:	bd38      	pop	{r3, r4, r5, pc}
  ac:	50010010 	.word	0x50010010
  b0:	50010004 	.word	0x50010004

000000b4 <lcd5510_pixels>:
  b4:	b538      	push	{r3, r4, r5, lr}
  b6:	2380      	movs	r3, #128	; 0x80
  b8:	4318      	orrs	r0, r3
  ba:	1c0d      	adds	r5, r1, #0
  bc:	1c14      	adds	r4, r2, #0
  be:	f7ff ffd9 	bl	74 <lcd5510_command>
  c2:	2040      	movs	r0, #64	; 0x40
  c4:	4328      	orrs	r0, r5
  c6:	f7ff ffd5 	bl	74 <lcd5510_command>
  ca:	1c20      	adds	r0, r4, #0
  cc:	f7ff ffe2 	bl	94 <lcd5510_data>
  d0:	bd38      	pop	{r3, r4, r5, pc}
	...

000000d4 <configure_this_pin_as_gpio>:
  d4:	4b08      	ldr	r3, [pc, #32]	; (f8 <configure_this_pin_as_gpio+0x24>)
  d6:	b510      	push	{r4, lr}
  d8:	2280      	movs	r2, #128	; 0x80
  da:	6fdc      	ldr	r4, [r3, #124]	; 0x7c
  dc:	0252      	lsls	r2, r2, #9
  de:	4322      	orrs	r2, r4
  e0:	67da      	str	r2, [r3, #124]	; 0x7c
  e2:	6802      	ldr	r2, [r0, #0]
  e4:	2407      	movs	r4, #7
  e6:	43a2      	bics	r2, r4
  e8:	4311      	orrs	r1, r2
  ea:	6001      	str	r1, [r0, #0]
  ec:	6fd9      	ldr	r1, [r3, #124]	; 0x7c
  ee:	4a03      	ldr	r2, [pc, #12]	; (fc <configure_this_pin_as_gpio+0x28>)
  f0:	400a      	ands	r2, r1
  f2:	67da      	str	r2, [r3, #124]	; 0x7c
  f4:	bd10      	pop	{r4, pc}
  f6:	46c0      	nop			; (mov r8, r8)
  f8:	40048004 	.word	0x40048004
  fc:	fffeffff 	.word	0xfffeffff

00000100 <lcd5510_init>:
 100:	b570      	push	{r4, r5, r6, lr}
 102:	4824      	ldr	r0, [pc, #144]	; (194 <lcd5510_init+0x94>)
 104:	2101      	movs	r1, #1
 106:	f7ff ffe5 	bl	d4 <configure_this_pin_as_gpio>
 10a:	4823      	ldr	r0, [pc, #140]	; (198 <lcd5510_init+0x98>)
 10c:	2101      	movs	r1, #1
 10e:	f7ff ffe1 	bl	d4 <configure_this_pin_as_gpio>
 112:	4822      	ldr	r0, [pc, #136]	; (19c <lcd5510_init+0x9c>)
 114:	2101      	movs	r1, #1
 116:	f7ff ffdd 	bl	d4 <configure_this_pin_as_gpio>
 11a:	4821      	ldr	r0, [pc, #132]	; (1a0 <lcd5510_init+0xa0>)
 11c:	2101      	movs	r1, #1
 11e:	f7ff ffd9 	bl	d4 <configure_this_pin_as_gpio>
 122:	4820      	ldr	r0, [pc, #128]	; (1a4 <lcd5510_init+0xa4>)
 124:	2100      	movs	r1, #0
 126:	f7ff ffd5 	bl	d4 <configure_this_pin_as_gpio>
 12a:	4a1f      	ldr	r2, [pc, #124]	; (1a8 <lcd5510_init+0xa8>)
 12c:	2380      	movs	r3, #128	; 0x80
 12e:	021b      	lsls	r3, r3, #8
 130:	58d1      	ldr	r1, [r2, r3]
 132:	201f      	movs	r0, #31
 134:	4301      	orrs	r1, r0
 136:	50d1      	str	r1, [r2, r3]
 138:	4b1c      	ldr	r3, [pc, #112]	; (1ac <lcd5510_init+0xac>)
 13a:	2600      	movs	r6, #0
 13c:	601e      	str	r6, [r3, #0]
 13e:	2001      	movs	r0, #1
 140:	2100      	movs	r1, #0
 142:	f7ff ff79 	bl	38 <wait>
 146:	2501      	movs	r5, #1
 148:	4b19      	ldr	r3, [pc, #100]	; (1b0 <lcd5510_init+0xb0>)
 14a:	426d      	negs	r5, r5
 14c:	4c19      	ldr	r4, [pc, #100]	; (1b4 <lcd5510_init+0xb4>)
 14e:	601d      	str	r5, [r3, #0]
 150:	2001      	movs	r0, #1
 152:	2100      	movs	r1, #0
 154:	f7ff ff70 	bl	38 <wait>
 158:	6026      	str	r6, [r4, #0]
 15a:	2001      	movs	r0, #1
 15c:	2100      	movs	r1, #0
 15e:	f7ff ff6b 	bl	38 <wait>
 162:	2001      	movs	r0, #1
 164:	2100      	movs	r1, #0
 166:	6025      	str	r5, [r4, #0]
 168:	f7ff ff66 	bl	38 <wait>
 16c:	2021      	movs	r0, #33	; 0x21
 16e:	f7ff ff81 	bl	74 <lcd5510_command>
 172:	20c8      	movs	r0, #200	; 0xc8
 174:	f7ff ff7e 	bl	74 <lcd5510_command>
 178:	2006      	movs	r0, #6
 17a:	f7ff ff7b 	bl	74 <lcd5510_command>
 17e:	2013      	movs	r0, #19
 180:	f7ff ff78 	bl	74 <lcd5510_command>
 184:	2020      	movs	r0, #32
 186:	f7ff ff75 	bl	74 <lcd5510_command>
 18a:	200c      	movs	r0, #12
 18c:	f7ff ff72 	bl	74 <lcd5510_command>
 190:	bd70      	pop	{r4, r5, r6, pc}
 192:	46c0      	nop			; (mov r8, r8)
 194:	40044078 	.word	0x40044078
 198:	4004407c 	.word	0x4004407c
 19c:	40044080 	.word	0x40044080
 1a0:	40044090 	.word	0x40044090
 1a4:	40044094 	.word	0x40044094
 1a8:	50010000 	.word	0x50010000
 1ac:	50010040 	.word	0x50010040
 1b0:	50010004 	.word	0x50010004
 1b4:	50010008 	.word	0x50010008

000001b8 <lcd5510_write>:
 1b8:	b538      	push	{r3, r4, r5, lr}
 1ba:	2853      	cmp	r0, #83	; 0x53
 1bc:	d819      	bhi.n	1f2 <lcd5510_write+0x3a>
 1be:	292f      	cmp	r1, #47	; 0x2f
 1c0:	d817      	bhi.n	1f2 <lcd5510_write+0x3a>
 1c2:	08cd      	lsrs	r5, r1, #3
 1c4:	2354      	movs	r3, #84	; 0x54
 1c6:	436b      	muls	r3, r5
 1c8:	2407      	movs	r4, #7
 1ca:	4021      	ands	r1, r4
 1cc:	2401      	movs	r4, #1
 1ce:	408c      	lsls	r4, r1
 1d0:	1c21      	adds	r1, r4, #0
 1d2:	181b      	adds	r3, r3, r0
 1d4:	4c07      	ldr	r4, [pc, #28]	; (1f4 <lcd5510_write+0x3c>)
 1d6:	2a00      	cmp	r2, #0
 1d8:	d003      	beq.n	1e2 <lcd5510_write+0x2a>
 1da:	5ce2      	ldrb	r2, [r4, r3]
 1dc:	4311      	orrs	r1, r2
 1de:	54e1      	strb	r1, [r4, r3]
 1e0:	e002      	b.n	1e8 <lcd5510_write+0x30>
 1e2:	5ce2      	ldrb	r2, [r4, r3]
 1e4:	438a      	bics	r2, r1
 1e6:	54e2      	strb	r2, [r4, r3]
 1e8:	b2c0      	uxtb	r0, r0
 1ea:	b2e9      	uxtb	r1, r5
 1ec:	5ce2      	ldrb	r2, [r4, r3]
 1ee:	f7ff ff61 	bl	b4 <lcd5510_pixels>
 1f2:	bd38      	pop	{r3, r4, r5, pc}
 1f4:	10000004 	.word	0x10000004

000001f8 <lcd5510_clear>:
 1f8:	b510      	push	{r4, lr}
 1fa:	2080      	movs	r0, #128	; 0x80
 1fc:	f7ff ff3a 	bl	74 <lcd5510_command>
 200:	2040      	movs	r0, #64	; 0x40
 202:	f7ff ff37 	bl	74 <lcd5510_command>
 206:	2400      	movs	r4, #0
 208:	4b05      	ldr	r3, [pc, #20]	; (220 <lcd5510_clear+0x28>)
 20a:	2000      	movs	r0, #0
 20c:	18e3      	adds	r3, r4, r3
 20e:	7018      	strb	r0, [r3, #0]
 210:	f7ff ff40 	bl	94 <lcd5510_data>
 214:	3401      	adds	r4, #1
 216:	23fc      	movs	r3, #252	; 0xfc
 218:	005b      	lsls	r3, r3, #1
 21a:	429c      	cmp	r4, r3
 21c:	d1f4      	bne.n	208 <lcd5510_clear+0x10>
 21e:	bd10      	pop	{r4, pc}
 220:	10000004 	.word	0x10000004

00000224 <lcd5510_line>:
 224:	b5f0      	push	{r4, r5, r6, r7, lr}
 226:	b087      	sub	sp, #28
 228:	9200      	str	r2, [sp, #0]
 22a:	aa0c      	add	r2, sp, #48	; 0x30
 22c:	7812      	ldrb	r2, [r2, #0]
 22e:	9d00      	ldr	r5, [sp, #0]
 230:	9205      	str	r2, [sp, #20]
 232:	1a5a      	subs	r2, r3, r1
 234:	17d7      	asrs	r7, r2, #31
 236:	1a2c      	subs	r4, r5, r0
 238:	19d6      	adds	r6, r2, r7
 23a:	407e      	eors	r6, r7
 23c:	17e5      	asrs	r5, r4, #31
 23e:	9603      	str	r6, [sp, #12]
 240:	9304      	str	r3, [sp, #16]
 242:	17f6      	asrs	r6, r6, #31
 244:	1963      	adds	r3, r4, r5
 246:	406b      	eors	r3, r5
 248:	46b4      	mov	ip, r6
 24a:	9d03      	ldr	r5, [sp, #12]
 24c:	0fde      	lsrs	r6, r3, #31
 24e:	4667      	mov	r7, ip
 250:	429d      	cmp	r5, r3
 252:	4177      	adcs	r7, r6
 254:	9703      	str	r7, [sp, #12]
 256:	2f00      	cmp	r7, #0
 258:	d103      	bne.n	262 <lcd5510_line+0x3e>
 25a:	1c13      	adds	r3, r2, #0
 25c:	1c22      	adds	r2, r4, #0
 25e:	1c1c      	adds	r4, r3, #0
 260:	e004      	b.n	26c <lcd5510_line+0x48>
 262:	9e04      	ldr	r6, [sp, #16]
 264:	1c03      	adds	r3, r0, #0
 266:	9600      	str	r6, [sp, #0]
 268:	1c08      	adds	r0, r1, #0
 26a:	1c19      	adds	r1, r3, #0
 26c:	2701      	movs	r7, #1
 26e:	9701      	str	r7, [sp, #4]
 270:	2a00      	cmp	r2, #0
 272:	da02      	bge.n	27a <lcd5510_line+0x56>
 274:	427b      	negs	r3, r7
 276:	4252      	negs	r2, r2
 278:	9301      	str	r3, [sp, #4]
 27a:	2501      	movs	r5, #1
 27c:	9502      	str	r5, [sp, #8]
 27e:	2c00      	cmp	r4, #0
 280:	da02      	bge.n	288 <lcd5510_line+0x64>
 282:	426b      	negs	r3, r5
 284:	4264      	negs	r4, r4
 286:	9302      	str	r3, [sp, #8]
 288:	0064      	lsls	r4, r4, #1
 28a:	0057      	lsls	r7, r2, #1
 28c:	1be7      	subs	r7, r4, r7
 28e:	9404      	str	r4, [sp, #16]
 290:	1c0d      	adds	r5, r1, #0
 292:	18bc      	adds	r4, r7, r2
 294:	1c06      	adds	r6, r0, #0
 296:	9a00      	ldr	r2, [sp, #0]
 298:	4296      	cmp	r6, r2
 29a:	d015      	beq.n	2c8 <lcd5510_line+0xa4>
 29c:	9a03      	ldr	r2, [sp, #12]
 29e:	2a00      	cmp	r2, #0
 2a0:	d002      	beq.n	2a8 <lcd5510_line+0x84>
 2a2:	1c31      	adds	r1, r6, #0
 2a4:	1c28      	adds	r0, r5, #0
 2a6:	e001      	b.n	2ac <lcd5510_line+0x88>
 2a8:	1c29      	adds	r1, r5, #0
 2aa:	1c30      	adds	r0, r6, #0
 2ac:	9a05      	ldr	r2, [sp, #20]
 2ae:	f7ff ff83 	bl	1b8 <lcd5510_write>
 2b2:	2c00      	cmp	r4, #0
 2b4:	dd03      	ble.n	2be <lcd5510_line+0x9a>
 2b6:	9b02      	ldr	r3, [sp, #8]
 2b8:	19e4      	adds	r4, r4, r7
 2ba:	18ed      	adds	r5, r5, r3
 2bc:	e001      	b.n	2c2 <lcd5510_line+0x9e>
 2be:	9a04      	ldr	r2, [sp, #16]
 2c0:	18a4      	adds	r4, r4, r2
 2c2:	9b01      	ldr	r3, [sp, #4]
 2c4:	18f6      	adds	r6, r6, r3
 2c6:	e7e6      	b.n	296 <lcd5510_line+0x72>
 2c8:	b007      	add	sp, #28
 2ca:	bdf0      	pop	{r4, r5, r6, r7, pc}

000002cc <timer_init>:
 2cc:	4b06      	ldr	r3, [pc, #24]	; (2e8 <timer_init+0x1c>)
 2ce:	2280      	movs	r2, #128	; 0x80
 2d0:	6fd9      	ldr	r1, [r3, #124]	; 0x7c
 2d2:	0092      	lsls	r2, r2, #2
 2d4:	430a      	orrs	r2, r1
 2d6:	67da      	str	r2, [r3, #124]	; 0x7c
 2d8:	4b04      	ldr	r3, [pc, #16]	; (2ec <timer_init+0x20>)
 2da:	2200      	movs	r2, #0
 2dc:	671a      	str	r2, [r3, #112]	; 0x70
 2de:	220b      	movs	r2, #11
 2e0:	60da      	str	r2, [r3, #12]
 2e2:	2201      	movs	r2, #1
 2e4:	605a      	str	r2, [r3, #4]
 2e6:	4770      	bx	lr
 2e8:	40048004 	.word	0x40048004
 2ec:	40014000 	.word	0x40014000

000002f0 <now>:
 2f0:	4b01      	ldr	r3, [pc, #4]	; (2f8 <now+0x8>)
 2f2:	6898      	ldr	r0, [r3, #8]
 2f4:	4770      	bx	lr
 2f6:	46c0      	nop			; (mov r8, r8)
 2f8:	40014000 	.word	0x40014000

000002fc <await>:
 2fc:	4b02      	ldr	r3, [pc, #8]	; (308 <await+0xc>)
 2fe:	689b      	ldr	r3, [r3, #8]
 300:	4298      	cmp	r0, r3
 302:	d8fb      	bhi.n	2fc <await>
 304:	4770      	bx	lr
 306:	46c0      	nop			; (mov r8, r8)
 308:	40014000 	.word	0x40014000

0000030c <rand>:
 30c:	4b04      	ldr	r3, [pc, #16]	; (320 <rand+0x14>)
 30e:	4805      	ldr	r0, [pc, #20]	; (324 <rand+0x18>)
 310:	681a      	ldr	r2, [r3, #0]
 312:	4350      	muls	r0, r2
 314:	4a04      	ldr	r2, [pc, #16]	; (328 <rand+0x1c>)
 316:	1880      	adds	r0, r0, r2
 318:	6018      	str	r0, [r3, #0]
 31a:	0040      	lsls	r0, r0, #1
 31c:	0c40      	lsrs	r0, r0, #17
 31e:	4770      	bx	lr
 320:	10000000 	.word	0x10000000
 324:	000343fd 	.word	0x000343fd
 328:	00269ec3 	.word	0x00269ec3

0000032c <main>:
 32c:	b5f0      	push	{r4, r5, r6, r7, lr}
 32e:	b085      	sub	sp, #20
 330:	f7ff ffcc 	bl	2cc <timer_init>
 334:	f7ff fee4 	bl	100 <lcd5510_init>
 338:	f7ff ff5e 	bl	1f8 <lcd5510_clear>
 33c:	2400      	movs	r4, #0
 33e:	1c20      	adds	r0, r4, #0
 340:	2100      	movs	r1, #0
 342:	2201      	movs	r2, #1
 344:	f7ff ff38 	bl	1b8 <lcd5510_write>
 348:	1c20      	adds	r0, r4, #0
 34a:	212f      	movs	r1, #47	; 0x2f
 34c:	2201      	movs	r2, #1
 34e:	3401      	adds	r4, #1
 350:	f7ff ff32 	bl	1b8 <lcd5510_write>
 354:	2c54      	cmp	r4, #84	; 0x54
 356:	d1f2      	bne.n	33e <main+0x12>
 358:	2400      	movs	r4, #0
 35a:	1c21      	adds	r1, r4, #0
 35c:	2000      	movs	r0, #0
 35e:	2201      	movs	r2, #1
 360:	f7ff ff2a 	bl	1b8 <lcd5510_write>
 364:	1c21      	adds	r1, r4, #0
 366:	2053      	movs	r0, #83	; 0x53
 368:	2201      	movs	r2, #1
 36a:	3401      	adds	r4, #1
 36c:	f7ff ff24 	bl	1b8 <lcd5510_write>
 370:	2c30      	cmp	r4, #48	; 0x30
 372:	d1f2      	bne.n	35a <main+0x2e>
 374:	241e      	movs	r4, #30
 376:	f7ff ffc9 	bl	30c <rand>
 37a:	1c07      	adds	r7, r0, #0
 37c:	f7ff ffc6 	bl	30c <rand>
 380:	1c05      	adds	r5, r0, #0
 382:	f7ff ffc3 	bl	30c <rand>
 386:	1c06      	adds	r6, r0, #0
 388:	f7ff ffc0 	bl	30c <rand>
 38c:	2155      	movs	r1, #85	; 0x55
 38e:	9003      	str	r0, [sp, #12]
 390:	1c38      	adds	r0, r7, #0
 392:	f000 f891 	bl	4b8 <__aeabi_uidivmod>
 396:	1c30      	adds	r0, r6, #0
 398:	1c0f      	adds	r7, r1, #0
 39a:	2131      	movs	r1, #49	; 0x31
 39c:	f000 f88c 	bl	4b8 <__aeabi_uidivmod>
 3a0:	1c28      	adds	r0, r5, #0
 3a2:	1c0e      	adds	r6, r1, #0
 3a4:	2155      	movs	r1, #85	; 0x55
 3a6:	f000 f887 	bl	4b8 <__aeabi_uidivmod>
 3aa:	9803      	ldr	r0, [sp, #12]
 3ac:	1c0d      	adds	r5, r1, #0
 3ae:	2131      	movs	r1, #49	; 0x31
 3b0:	f000 f882 	bl	4b8 <__aeabi_uidivmod>
 3b4:	2201      	movs	r2, #1
 3b6:	1c0b      	adds	r3, r1, #0
 3b8:	9200      	str	r2, [sp, #0]
 3ba:	1c31      	adds	r1, r6, #0
 3bc:	1c2a      	adds	r2, r5, #0
 3be:	1c38      	adds	r0, r7, #0
 3c0:	f7ff ff30 	bl	224 <lcd5510_line>
 3c4:	f7ff ff94 	bl	2f0 <now>
 3c8:	4b03      	ldr	r3, [pc, #12]	; (3d8 <main+0xac>)
 3ca:	3c01      	subs	r4, #1
 3cc:	18c0      	adds	r0, r0, r3
 3ce:	f7ff ff95 	bl	2fc <await>
 3d2:	2c00      	cmp	r4, #0
 3d4:	d1cf      	bne.n	376 <main+0x4a>
 3d6:	e7af      	b.n	338 <main+0xc>
 3d8:	0007a120 	.word	0x0007a120

000003dc <__startup>:
 3dc:	b510      	push	{r4, lr}
 3de:	4b0f      	ldr	r3, [pc, #60]	; (41c <__main_stack_size+0x1c>)
 3e0:	4a0f      	ldr	r2, [pc, #60]	; (420 <__main_stack_size+0x20>)
 3e2:	1d19      	adds	r1, r3, #4
 3e4:	3b04      	subs	r3, #4
 3e6:	4293      	cmp	r3, r2
 3e8:	d003      	beq.n	3f2 <__startup+0x16>
 3ea:	2200      	movs	r2, #0
 3ec:	601a      	str	r2, [r3, #0]
 3ee:	1c0b      	adds	r3, r1, #0
 3f0:	e7f6      	b.n	3e0 <__startup+0x4>
 3f2:	4a0c      	ldr	r2, [pc, #48]	; (424 <__main_stack_size+0x24>)
 3f4:	490c      	ldr	r1, [pc, #48]	; (428 <__main_stack_size+0x28>)
 3f6:	2300      	movs	r3, #0
 3f8:	1a89      	subs	r1, r1, r2
 3fa:	0889      	lsrs	r1, r1, #2
 3fc:	3101      	adds	r1, #1
 3fe:	0089      	lsls	r1, r1, #2
 400:	3304      	adds	r3, #4
 402:	428b      	cmp	r3, r1
 404:	d007      	beq.n	416 <__main_stack_size+0x16>
 406:	4c09      	ldr	r4, [pc, #36]	; (42c <__main_stack_size+0x2c>)
 408:	18d0      	adds	r0, r2, r3
 40a:	191c      	adds	r4, r3, r4
 40c:	3c04      	subs	r4, #4
 40e:	6824      	ldr	r4, [r4, #0]
 410:	3804      	subs	r0, #4
 412:	6004      	str	r4, [r0, #0]
 414:	e7f4      	b.n	400 <__main_stack_size>
 416:	f7ff ff89 	bl	32c <main>
 41a:	e7fe      	b.n	41a <__main_stack_size+0x1a>
 41c:	10000004 	.word	0x10000004
 420:	100001fc 	.word	0x100001fc
 424:	10000000 	.word	0x10000000
 428:	10000000 	.word	0x10000000
 42c:	000004d0 	.word	0x000004d0

00000430 <__aeabi_uidiv>:
 430:	2900      	cmp	r1, #0
 432:	d034      	beq.n	49e <.udivsi3_skip_div0_test+0x6a>

00000434 <.udivsi3_skip_div0_test>:
 434:	2301      	movs	r3, #1
 436:	2200      	movs	r2, #0
 438:	b410      	push	{r4}
 43a:	4288      	cmp	r0, r1
 43c:	d32c      	bcc.n	498 <.udivsi3_skip_div0_test+0x64>
 43e:	2401      	movs	r4, #1
 440:	0724      	lsls	r4, r4, #28
 442:	42a1      	cmp	r1, r4
 444:	d204      	bcs.n	450 <.udivsi3_skip_div0_test+0x1c>
 446:	4281      	cmp	r1, r0
 448:	d202      	bcs.n	450 <.udivsi3_skip_div0_test+0x1c>
 44a:	0109      	lsls	r1, r1, #4
 44c:	011b      	lsls	r3, r3, #4
 44e:	e7f8      	b.n	442 <.udivsi3_skip_div0_test+0xe>
 450:	00e4      	lsls	r4, r4, #3
 452:	42a1      	cmp	r1, r4
 454:	d204      	bcs.n	460 <.udivsi3_skip_div0_test+0x2c>
 456:	4281      	cmp	r1, r0
 458:	d202      	bcs.n	460 <.udivsi3_skip_div0_test+0x2c>
 45a:	0049      	lsls	r1, r1, #1
 45c:	005b      	lsls	r3, r3, #1
 45e:	e7f8      	b.n	452 <.udivsi3_skip_div0_test+0x1e>
 460:	4288      	cmp	r0, r1
 462:	d301      	bcc.n	468 <.udivsi3_skip_div0_test+0x34>
 464:	1a40      	subs	r0, r0, r1
 466:	431a      	orrs	r2, r3
 468:	084c      	lsrs	r4, r1, #1
 46a:	42a0      	cmp	r0, r4
 46c:	d302      	bcc.n	474 <.udivsi3_skip_div0_test+0x40>
 46e:	1b00      	subs	r0, r0, r4
 470:	085c      	lsrs	r4, r3, #1
 472:	4322      	orrs	r2, r4
 474:	088c      	lsrs	r4, r1, #2
 476:	42a0      	cmp	r0, r4
 478:	d302      	bcc.n	480 <.udivsi3_skip_div0_test+0x4c>
 47a:	1b00      	subs	r0, r0, r4
 47c:	089c      	lsrs	r4, r3, #2
 47e:	4322      	orrs	r2, r4
 480:	08cc      	lsrs	r4, r1, #3
 482:	42a0      	cmp	r0, r4
 484:	d302      	bcc.n	48c <.udivsi3_skip_div0_test+0x58>
 486:	1b00      	subs	r0, r0, r4
 488:	08dc      	lsrs	r4, r3, #3
 48a:	4322      	orrs	r2, r4
 48c:	2800      	cmp	r0, #0
 48e:	d003      	beq.n	498 <.udivsi3_skip_div0_test+0x64>
 490:	091b      	lsrs	r3, r3, #4
 492:	d001      	beq.n	498 <.udivsi3_skip_div0_test+0x64>
 494:	0909      	lsrs	r1, r1, #4
 496:	e7e3      	b.n	460 <.udivsi3_skip_div0_test+0x2c>
 498:	1c10      	adds	r0, r2, #0
 49a:	bc10      	pop	{r4}
 49c:	4770      	bx	lr
 49e:	2800      	cmp	r0, #0
 4a0:	d001      	beq.n	4a6 <.udivsi3_skip_div0_test+0x72>
 4a2:	2000      	movs	r0, #0
 4a4:	43c0      	mvns	r0, r0
 4a6:	b407      	push	{r0, r1, r2}
 4a8:	4802      	ldr	r0, [pc, #8]	; (4b4 <.udivsi3_skip_div0_test+0x80>)
 4aa:	a102      	add	r1, pc, #8	; (adr r1, 4b4 <.udivsi3_skip_div0_test+0x80>)
 4ac:	1840      	adds	r0, r0, r1
 4ae:	9002      	str	r0, [sp, #8]
 4b0:	bd03      	pop	{r0, r1, pc}
 4b2:	46c0      	nop			; (mov r8, r8)
 4b4:	00000019 	.word	0x00000019

000004b8 <__aeabi_uidivmod>:
 4b8:	2900      	cmp	r1, #0
 4ba:	d0f0      	beq.n	49e <.udivsi3_skip_div0_test+0x6a>
 4bc:	b503      	push	{r0, r1, lr}
 4be:	f7ff ffb9 	bl	434 <.udivsi3_skip_div0_test>
 4c2:	bc0e      	pop	{r1, r2, r3}
 4c4:	4342      	muls	r2, r0
 4c6:	1a89      	subs	r1, r1, r2
 4c8:	4718      	bx	r3
 4ca:	46c0      	nop			; (mov r8, r8)

000004cc <__aeabi_idiv0>:
 4cc:	4770      	bx	lr
 4ce:	46c0      	nop			; (mov r8, r8)
