
main.elf:     file format elf32-littlearm


Disassembly of section .text:

00000000 <__text_start>:
   0:	10000400 	.word	0x10000400
   4:	000000bd 	.word	0x000000bd
	...

00000020 <beep>:
  20:	b537      	push	{r0, r1, r2, r4, r5, lr}
  22:	4b12      	ldr	r3, [pc, #72]	; (6c <beep+0x4c>)
  24:	2280      	movs	r2, #128	; 0x80
  26:	0212      	lsls	r2, r2, #8
  28:	589c      	ldr	r4, [r3, r2]
  2a:	2520      	movs	r5, #32
  2c:	432c      	orrs	r4, r5
  2e:	509c      	str	r4, [r3, r2]
  30:	2800      	cmp	r0, #0
  32:	dd1a      	ble.n	6a <beep+0x4a>
  34:	4a0e      	ldr	r2, [pc, #56]	; (70 <beep+0x50>)
  36:	2520      	movs	r5, #32
  38:	589c      	ldr	r4, [r3, r2]
  3a:	432c      	orrs	r4, r5
  3c:	509c      	str	r4, [r3, r2]
  3e:	2400      	movs	r4, #0
  40:	9401      	str	r4, [sp, #4]
  42:	9c01      	ldr	r4, [sp, #4]
  44:	428c      	cmp	r4, r1
  46:	da02      	bge.n	4e <beep+0x2e>
  48:	9c01      	ldr	r4, [sp, #4]
  4a:	3401      	adds	r4, #1
  4c:	e7f8      	b.n	40 <beep+0x20>
  4e:	589c      	ldr	r4, [r3, r2]
  50:	2520      	movs	r5, #32
  52:	43ac      	bics	r4, r5
  54:	509c      	str	r4, [r3, r2]
  56:	2200      	movs	r2, #0
  58:	9201      	str	r2, [sp, #4]
  5a:	9a01      	ldr	r2, [sp, #4]
  5c:	428a      	cmp	r2, r1
  5e:	da02      	bge.n	66 <beep+0x46>
  60:	9a01      	ldr	r2, [sp, #4]
  62:	3201      	adds	r2, #1
  64:	e7f8      	b.n	58 <beep+0x38>
  66:	3801      	subs	r0, #1
  68:	e7e2      	b.n	30 <beep+0x10>
  6a:	bd37      	pop	{r0, r1, r2, r4, r5, pc}
  6c:	50010000 	.word	0x50010000
  70:	00003ffc 	.word	0x00003ffc

00000074 <sound>:
  74:	b510      	push	{r4, lr}
  76:	2464      	movs	r4, #100	; 0x64
  78:	2800      	cmp	r0, #0
  7a:	d00e      	beq.n	9a <sound+0x26>
  7c:	20fa      	movs	r0, #250	; 0xfa
  7e:	0040      	lsls	r0, r0, #1
  80:	1c01      	adds	r1, r0, #0
  82:	f7ff ffcd 	bl	20 <beep>
  86:	20c8      	movs	r0, #200	; 0xc8
  88:	21c8      	movs	r1, #200	; 0xc8
  8a:	0040      	lsls	r0, r0, #1
  8c:	0089      	lsls	r1, r1, #2
  8e:	3c01      	subs	r4, #1
  90:	f7ff ffc6 	bl	20 <beep>
  94:	2c00      	cmp	r4, #0
  96:	d1f1      	bne.n	7c <sound+0x8>
  98:	e00a      	b.n	b0 <sound+0x3c>
  9a:	2064      	movs	r0, #100	; 0x64
  9c:	1c01      	adds	r1, r0, #0
  9e:	f7ff ffbf 	bl	20 <beep>
  a2:	3c01      	subs	r4, #1
  a4:	2064      	movs	r0, #100	; 0x64
  a6:	2196      	movs	r1, #150	; 0x96
  a8:	f7ff ffba 	bl	20 <beep>
  ac:	2c00      	cmp	r4, #0
  ae:	d1f4      	bne.n	9a <sound+0x26>
  b0:	bd10      	pop	{r4, pc}

000000b2 <main>:
  b2:	b508      	push	{r3, lr}
  b4:	2001      	movs	r0, #1
  b6:	f7ff ffdd 	bl	74 <sound>
  ba:	e7fb      	b.n	b4 <main+0x2>

000000bc <__startup>:
  bc:	b510      	push	{r4, lr}
  be:	4b0f      	ldr	r3, [pc, #60]	; (fc <__startup+0x40>)
  c0:	4a0f      	ldr	r2, [pc, #60]	; (100 <__startup+0x44>)
  c2:	1d19      	adds	r1, r3, #4
  c4:	3b04      	subs	r3, #4
  c6:	4293      	cmp	r3, r2
  c8:	d003      	beq.n	d2 <__startup+0x16>
  ca:	2200      	movs	r2, #0
  cc:	601a      	str	r2, [r3, #0]
  ce:	1c0b      	adds	r3, r1, #0
  d0:	e7f6      	b.n	c0 <__startup+0x4>
  d2:	4a0c      	ldr	r2, [pc, #48]	; (104 <__startup+0x48>)
  d4:	490c      	ldr	r1, [pc, #48]	; (108 <__startup+0x4c>)
  d6:	2300      	movs	r3, #0
  d8:	1a89      	subs	r1, r1, r2
  da:	0889      	lsrs	r1, r1, #2
  dc:	3101      	adds	r1, #1
  de:	0089      	lsls	r1, r1, #2
  e0:	3304      	adds	r3, #4
  e2:	428b      	cmp	r3, r1
  e4:	d007      	beq.n	f6 <__startup+0x3a>
  e6:	4c09      	ldr	r4, [pc, #36]	; (10c <__startup+0x50>)
  e8:	18d0      	adds	r0, r2, r3
  ea:	191c      	adds	r4, r3, r4
  ec:	3c04      	subs	r4, #4
  ee:	6824      	ldr	r4, [r4, #0]
  f0:	3804      	subs	r0, #4
  f2:	6004      	str	r4, [r0, #0]
  f4:	e7f4      	b.n	e0 <__startup+0x24>
  f6:	f7ff ffdc 	bl	b2 <main>
  fa:	e7fe      	b.n	fa <__startup+0x3e>
  fc:	10000004 	.word	0x10000004
 100:	10000000 	.word	0x10000000
 104:	10000000 	.word	0x10000000
 108:	10000000 	.word	0x10000000
 10c:	00000110 	.word	0x00000110
